target datalayout = "e-m:e-p270:32:32-p271:32:32-p272:64:64-i64:64-i128:128-f80:128-n8:16:32:64-S128"
target triple = "x86_64-pc-linux-gnu"

; Function Attrs: nounwind uwtable
define hidden i64 @maxAND(i64 noundef %0, i64 noundef %1, i64 noundef %2, i64 noundef %3) #0 {
  %5 = alloca i64, align 8
  %6 = alloca i64, align 8
  %7 = alloca i64, align 8
  %8 = alloca i64, align 8
  %9 = alloca i64, align 8
  %10 = alloca i64, align 8
  store i64 %0, ptr %5, align 8
  store i64 %1, ptr %6, align 8
  store i64 %2, ptr %7, align 8
  store i64 %3, ptr %8, align 8
  store i64 -9223372036854775808, ptr %9, align 8
  br label %11

11:                                               ; preds = %59, %4
  %12 = load i64, ptr %9, align 8
  %13 = icmp ne i64 %12, 0
  br i1 %13, label %14, label %62

14:                                               ; preds = %11
  %15 = load i64, ptr %6, align 8
  %16 = load i64, ptr %8, align 8
  %17 = xor i64 %16, -1
  %18 = and i64 %15, %17
  %19 = load i64, ptr %9, align 8
  %20 = and i64 %18, %19
  %21 = icmp ne i64 %20, 0
  br i1 %21, label %22, label %36

22:                                               ; preds = %14
  %23 = load i64, ptr %6, align 8
  %24 = load i64, ptr %9, align 8
  %25 = xor i64 %24, -1
  %26 = or i64 %23, %25
  %27 = load i64, ptr %9, align 8
  %28 = sub i64 %27, 1
  %29 = or i64 %26, %28
  store i64 %29, ptr %10, align 8
  %30 = load i64, ptr %10, align 8
  %31 = load i64, ptr %5, align 8
  %32 = icmp uge i64 %30, %31
  br i1 %32, label %33, label %35

33:                                               ; preds = %22
  %34 = load i64, ptr %10, align 8
  store i64 %34, ptr %6, align 8
  br label %62

35:                                               ; preds = %22
  br label %59

36:                                               ; preds = %14
  %37 = load i64, ptr %6, align 8
  %38 = xor i64 %37, -1
  %39 = load i64, ptr %8, align 8
  %40 = and i64 %38, %39
  %41 = load i64, ptr %9, align 8
  %42 = and i64 %40, %41
  %43 = icmp ne i64 %42, 0
  br i1 %43, label %44, label %58

44:                                               ; preds = %36
  %45 = load i64, ptr %8, align 8
  %46 = load i64, ptr %9, align 8
  %47 = xor i64 %46, -1
  %48 = or i64 %45, %47
  %49 = load i64, ptr %9, align 8
  %50 = sub i64 %49, 1
  %51 = or i64 %48, %50
  store i64 %51, ptr %10, align 8
  %52 = load i64, ptr %10, align 8
  %53 = load i64, ptr %7, align 8
  %54 = icmp uge i64 %52, %53
  br i1 %54, label %55, label %57

55:                                               ; preds = %44
  %56 = load i64, ptr %10, align 8
  store i64 %56, ptr %8, align 8
  br label %62

57:                                               ; preds = %44
  br label %58

58:                                               ; preds = %57, %36
  br label %59

59:                                               ; preds = %58, %35
  %60 = load i64, ptr %9, align 8
  %61 = lshr i64 %60, 1
  store i64 %61, ptr %9, align 8
  br label %11

62:                                               ; preds = %55, %33, %11
  %63 = load i64, ptr %6, align 8
  %64 = load i64, ptr %8, align 8
  %65 = and i64 %63, %64
  ret i64 %65
}