; Function Attrs: nofree norecurse nosync nounwind memory(none) uwtable
define hidden i64 @maxAND(i64 noundef %0, i64 noundef %1, i64 noundef %2, i64 noundef %3) local_unnamed_addr #5 {
  %5 = xor i64 %3, -1
  %6 = and i64 %5, %1
  %7 = xor i64 %1, -1
  %8 = and i64 %7, %3
  br label %9

9:                                                ; preds = %4, %23
  %.030 = phi i64 [ -9223372036854775808, %4 ], [ %24, %23 ]
  %10 = and i64 %6, %.030
  %.not26 = icmp eq i64 %10, 0
  br i1 %.not26, label %16, label %11

11:                                               ; preds = %9
  %12 = xor i64 %.030, -1
  %13 = add i64 %.030, -1
  %14 = or i64 %13, %12
  %15 = or i64 %14, %1
  %.not29 = icmp ult i64 %15, %0
  br i1 %.not29, label %23, label %25

16:                                               ; preds = %9
  %17 = and i64 %8, %.030
  %.not27 = icmp eq i64 %17, 0
  br i1 %.not27, label %23, label %18

18:                                               ; preds = %16
  %19 = xor i64 %.030, -1
  %20 = add i64 %.030, -1
  %21 = or i64 %20, %19
  %22 = or i64 %21, %3
  %.not28 = icmp ult i64 %22, %2
  br i1 %.not28, label %23, label %25

23:                                               ; preds = %16, %18, %11
  %24 = lshr i64 %.030, 1
  %.not = icmp ult i64 %.030, 2
  br i1 %.not, label %25, label %9

25:                                               ; preds = %18, %11, %23
  %.023 = phi i64 [ %1, %23 ], [ %15, %11 ], [ %1, %18 ]
  %.022 = phi i64 [ %3, %23 ], [ %3, %11 ], [ %22, %18 ]
  %26 = and i64 %.022, %.023
  ret i64 %26
}